; Function Attrs: mustprogress nofree nounwind willreturn uwtable
define dso_local noundef zeroext i1 @safe_strtod(ptr noundef %0, ptr noundef writeonly captures(none) initializes((0, 8)) %1) local_unnamed_addr #6 {
  %3 = alloca ptr, align 8
  %4 = tail call ptr @__errno_location() #14
  store i32 0, ptr %4, align 4, !tbaa !17
  store double 0.000000e+00, ptr %1, align 8, !tbaa !21
  call void @llvm.lifetime.start.p0(i64 8, ptr nonnull %3) #15
  %5 = call double @strtod(ptr noundef %0, ptr noundef nonnull %3) #15
  %6 = load i32, ptr %4, align 4, !tbaa !17
  %7 = icmp eq i32 %6, 34
  br i1 %7, label %21, label %8

8:                                                ; preds = %2
  %9 = load ptr, ptr %3, align 8, !tbaa !11
  %10 = icmp eq ptr %0, %9
  br i1 %10, label %21, label %11

11:                                               ; preds = %8
  %12 = tail call ptr @__ctype_b_loc() #14
  %13 = load ptr, ptr %12, align 8, !tbaa !4
  %14 = load i8, ptr %9, align 1, !tbaa !15
  %15 = zext i8 %14 to i64
  %16 = getelementptr inbounds nuw i16, ptr %13, i64 %15
  %17 = load i16, ptr %16, align 2, !tbaa !9
  %18 = and i16 %17, 8192
  %.not = icmp ne i16 %18, 0
  %19 = icmp eq i8 %14, 0
  %or.cond = or i1 %19, %.not
  br i1 %or.cond, label %20, label %21

20:                                               ; preds = %11
  store double %5, ptr %1, align 8, !tbaa !21
  br label %21

21:                                               ; preds = %11, %2, %8, %20
  %.0 = phi i1 [ true, %20 ], [ false, %8 ], [ false, %2 ], [ false, %11 ]
  call void @llvm.lifetime.end.p0(i64 8, ptr nonnull %3) #15
  ret i1 %.0
}